; Function Attrs: mustprogress nounwind uwtable
define hidden void @_ZN11G1Analytics29report_cost_per_card_merge_msEdb(ptr noundef nonnull align 8 dereferenceable(2048) %0, double noundef %1, i1 noundef zeroext %2) local_unnamed_addr #1 align 2 {
  %4 = getelementptr inbounds i8, ptr %0, i64 808
  %.idx.i.i = select i1 %2, i64 0, i64 72
  %5 = getelementptr inbounds i8, ptr %4, i64 %.idx.i.i
  %6 = load ptr, ptr %5, align 8
  %7 = getelementptr inbounds i8, ptr %6, i64 8
  %8 = load ptr, ptr %7, align 8
  tail call void %8(ptr noundef nonnull align 8 dereferenceable(72) %5, double noundef %1) #7
  ret void
}